; Function Attrs: mustprogress uwtable
define void @_ZN3zmq23stream_connecter_base_t12process_plugEv(ptr noundef nonnull align 8 dereferenceable(1544) %0) unnamed_addr #0 align 2 {
  %2 = getelementptr inbounds nuw i8, ptr %0, i64 1528
  %3 = load i8, ptr %2, align 8, !tbaa !73, !range !81, !noundef !82
  %4 = trunc nuw i8 %3 to i1
  br i1 %4, label %5, label %6

5:                                                ; preds = %1
  tail call void @_ZN3zmq23stream_connecter_base_t19add_reconnect_timerEv(ptr noundef nonnull align 8 dereferenceable(1544) %0)
  br label %10

6:                                                ; preds = %1
  %7 = load ptr, ptr %0, align 8, !tbaa !3
  %8 = getelementptr inbounds nuw i8, ptr %7, i64 216
  %9 = load ptr, ptr %8, align 8
  tail call void %9(ptr noundef nonnull align 8 dereferenceable(1544) %0)
  br label %10

10:                                               ; preds = %6, %5
  ret void
}